; Function Attrs: mustprogress nounwind uwtable
define dso_local noundef zeroext i1 @_ZNK22cmNinjaTargetGenerator25NeedExplicitPreprocessingERKNSt7__cxx1112basic_stringIcSt11char_traitsIcESaIcEEE(ptr nocapture noundef nonnull readnone align 8 dereferenceable(240) %0, ptr noundef nonnull align 8 dereferenceable(32) %1) local_unnamed_addr #4 align 2 {
  %3 = tail call noundef i32 @_ZNKSt7__cxx1112basic_stringIcSt11char_traitsIcESaIcEE7compareEPKc(ptr noundef nonnull align 8 dereferenceable(32) %1, ptr noundef nonnull @.str.6) #24
  %4 = icmp eq i32 %3, 0
  br i1 %4, label %8, label %5

5:                                                ; preds = %2
  %6 = tail call noundef i32 @_ZNKSt7__cxx1112basic_stringIcSt11char_traitsIcESaIcEE7compareEPKc(ptr noundef nonnull align 8 dereferenceable(32) %1, ptr noundef nonnull @.str.7) #24
  %7 = icmp eq i32 %6, 0
  br label %8

8:                                                ; preds = %5, %2
  %9 = phi i1 [ true, %2 ], [ %7, %5 ]
  ret i1 %9
}